; Function Attrs: nounwind uwtable
define internal void @callReplyArray(ptr noundef %0, ptr noundef captures(none) initializes((32, 36), (40, 56)) %1, i64 noundef %2, ptr noundef %3) #0 {
  %5 = getelementptr inbounds nuw i8, ptr %1, i64 32
  store i32 3, ptr %5, align 8, !tbaa !15
  %6 = getelementptr inbounds nuw i8, ptr %1, i64 40
  store i64 %2, ptr %6, align 8, !tbaa !18
  %7 = mul i64 %2, 80
  %8 = tail call noalias ptr @zcalloc(i64 noundef %7) #9
  %9 = getelementptr inbounds nuw i8, ptr %1, i64 48
  store ptr %8, ptr %9, align 8, !tbaa !19
  %.not36.i = icmp eq i64 %2, 0
  br i1 %.not36.i, label %callReplyParseCollection.exit, label %.preheader.lr.ph.i

.preheader.lr.ph.i:                               ; preds = %4
  %10 = getelementptr inbounds nuw i8, ptr %1, i64 36
  br label %.preheader.i

.preheader.i:                                     ; preds = %28, %.preheader.lr.ph.i
  %11 = phi ptr [ %8, %.preheader.lr.ph.i ], [ %21, %28 ]
  %.03235.i = phi i64 [ 0, %.preheader.lr.ph.i ], [ %29, %28 ]
  %12 = load ptr, ptr %1, align 8, !tbaa !24
  %13 = getelementptr inbounds nuw %struct.CallReply, ptr %11, i64 %.03235.i
  store ptr %12, ptr %13, align 8, !tbaa !24
  %14 = load ptr, ptr %9, align 8, !tbaa !19
  %15 = getelementptr inbounds nuw %struct.CallReply, ptr %14, i64 %.03235.i
  %16 = tail call i32 @parseReply(ptr noundef %0, ptr noundef %15) #8
  %17 = load ptr, ptr %9, align 8, !tbaa !19
  %18 = getelementptr inbounds nuw %struct.CallReply, ptr %17, i64 %.03235.i, i32 5
  %19 = load i32, ptr %18, align 4, !tbaa !5
  %20 = or i32 %19, 2
  store i32 %20, ptr %18, align 4, !tbaa !5
  %21 = load ptr, ptr %9, align 8, !tbaa !19
  %22 = getelementptr inbounds nuw %struct.CallReply, ptr %21, i64 %.03235.i, i32 5
  %23 = load i32, ptr %22, align 4, !tbaa !5
  %24 = and i32 %23, 4
  %.not.i = icmp eq i32 %24, 0
  br i1 %.not.i, label %28, label %25

25:                                               ; preds = %.preheader.i
  %26 = load i32, ptr %10, align 4, !tbaa !5
  %27 = or i32 %26, 4
  store i32 %27, ptr %10, align 4, !tbaa !5
  br label %28

28:                                               ; preds = %25, %.preheader.i
  %29 = add nuw i64 %.03235.i, 1
  %exitcond.not = icmp eq i64 %29, %2
  br i1 %exitcond.not, label %callReplyParseCollection.exit, label %.preheader.i, !llvm.loop !41

callReplyParseCollection.exit:                    ; preds = %28, %4
  %30 = getelementptr inbounds nuw i8, ptr %1, i64 16
  store ptr %3, ptr %30, align 8, !tbaa !25
  %31 = load ptr, ptr %0, align 8, !tbaa !26
  %32 = ptrtoint ptr %31 to i64
  %33 = ptrtoint ptr %3 to i64
  %34 = sub i64 %32, %33
  %35 = getelementptr inbounds nuw i8, ptr %1, i64 24
  store i64 %34, ptr %35, align 8, !tbaa !34
  ret void
}